; Function Attrs: nounwind uwtable
define internal i32 @pmix_preg_open(i32 noundef %0) #1 {
  store i8 1, ptr getelementptr inbounds nuw (i8, ptr @pmix_preg_globals, i64 272), align 8, !tbaa !3
  %2 = load i32, ptr @pmix_class_init_epoch, align 4, !tbaa !17
  %3 = load i32, ptr getelementptr inbounds nuw (i8, ptr @pmix_list_t_class, i64 32), align 8, !tbaa !18
  %.not = icmp eq i32 %2, %3
  br i1 %.not, label %5, label %4

4:                                                ; preds = %1
  tail call void @pmix_class_initialize(ptr noundef nonnull @pmix_list_t_class) #9
  br label %5

5:                                                ; preds = %4, %1
  store ptr @pmix_list_t_class, ptr getelementptr inbounds nuw (i8, ptr @pmix_preg_globals, i64 40), align 8, !tbaa !21
  store i32 1, ptr getelementptr inbounds nuw (i8, ptr @pmix_preg_globals, i64 48), align 8, !tbaa !22
  tail call void @llvm.memset.p0.i64(ptr noundef nonnull align 8 dereferenceable(64) getelementptr inbounds nuw (i8, ptr @pmix_preg_globals, i64 56), i8 0, i64 64, i1 false)
  %6 = load ptr, ptr getelementptr inbounds nuw (i8, ptr @pmix_list_t_class, i64 40), align 8, !tbaa !23
  %7 = load ptr, ptr %6, align 8, !tbaa !24
  %.not6.i = icmp eq ptr %7, null
  br i1 %.not6.i, label %pmix_obj_run_constructors.exit, label %.lr.ph.i

.lr.ph.i:                                         ; preds = %5, %.lr.ph.i
  %8 = phi ptr [ %10, %.lr.ph.i ], [ %7, %5 ]
  %.07.i = phi ptr [ %9, %.lr.ph.i ], [ %6, %5 ]
  tail call void %8(ptr noundef nonnull @pmix_preg_globals) #9
  %9 = getelementptr inbounds nuw i8, ptr %.07.i, i64 8
  %10 = load ptr, ptr %9, align 8, !tbaa !24
  %.not.i = icmp eq ptr %10, null
  br i1 %.not.i, label %pmix_obj_run_constructors.exit, label %.lr.ph.i, !llvm.loop !25

pmix_obj_run_constructors.exit:                   ; preds = %.lr.ph.i, %5
  %11 = tail call i32 @pmix_mca_base_framework_components_open(ptr noundef nonnull @pmix_preg_base_framework, i32 noundef %0) #9
  ret i32 %11
}